target datalayout = "e-m:e-p270:32:32-p271:32:32-p272:64:64-i64:64-i128:128-f80:128-n8:16:32:64-S128"
target triple = "x86_64-pc-linux-gnu"

%struct.oidset = type { %struct.kh_oid_set }
%struct.kh_oid_set = type { i32, i32, i32, i32, ptr, ptr, ptr }
%struct.packed_git = type { %struct.hashmap_entry, ptr, %struct.list_head, ptr, i64, ptr, i64, i32, i64, %struct.oidset, i32, i64, i32, i32, i8, [32 x i8], ptr, ptr, ptr, i64, ptr, i64, ptr, [0 x i8] }
%struct.hashmap_entry = type { ptr, i32 }
%struct.list_head = type { ptr, ptr }

@.str.120 = private unnamed_addr constant [25 x i8] c"cannot open index for %s\00", align 1

; Function Attrs: nounwind uwtable
define internal i32 @geometry_pack_weight(ptr noundef %0) #0 {
  %2 = alloca ptr, align 8
  store ptr %0, ptr %2, align 8, !tbaa !63
  %3 = load ptr, ptr %2, align 8, !tbaa !63
  %4 = call i32 @open_pack_index(ptr noundef %3)
  %5 = icmp ne i32 %4, 0
  br i1 %5, label %6, label %11

6:                                                ; preds = %1
  %7 = call ptr @_(ptr noundef @.str.120)
  %8 = load ptr, ptr %2, align 8, !tbaa !63
  %9 = getelementptr inbounds nuw %struct.packed_git, ptr %8, i32 0, i32 23
  %10 = getelementptr inbounds [0 x i8], ptr %9, i64 0, i64 0
  call void (ptr, ...) @die(ptr noundef %7, ptr noundef %10) #11
  unreachable

11:                                               ; preds = %1
  %12 = load ptr, ptr %2, align 8, !tbaa !63
  %13 = getelementptr inbounds nuw %struct.packed_git, ptr %12, i32 0, i32 7
  %14 = load i32, ptr %13, align 8, !tbaa !4
  ret i32 %14
}

; Function Attrs: nounwind uwtable
define internal i32 @geometry_cmp(ptr noundef %0, ptr noundef %1) #0 {
  %3 = alloca i32, align 4
  %4 = alloca ptr, align 8
  %5 = alloca ptr, align 8
  %6 = alloca i32, align 4
  %7 = alloca i32, align 4
  %8 = alloca i32, align 4
  store ptr %0, ptr %4, align 8, !tbaa !97
  store ptr %1, ptr %5, align 8, !tbaa !97
  call void @llvm.lifetime.start.p0(i64 4, ptr %6) #10
  %9 = load ptr, ptr %4, align 8, !tbaa !97
  %10 = load ptr, ptr %9, align 8, !tbaa !63
  %11 = call i32 @geometry_pack_weight(ptr noundef %10)
  store i32 %11, ptr %6, align 4, !tbaa !4
  call void @llvm.lifetime.start.p0(i64 4, ptr %7) #10
  %12 = load ptr, ptr %5, align 8, !tbaa !97
  %13 = load ptr, ptr %12, align 8, !tbaa !63
  %14 = call i32 @geometry_pack_weight(ptr noundef %13)
  store i32 %14, ptr %7, align 4, !tbaa !4
  %15 = load i32, ptr %6, align 4, !tbaa !4
  %16 = load i32, ptr %7, align 4, !tbaa !4
  %17 = icmp ult i32 %15, %16
  br i1 %17, label %18, label %19

18:                                               ; preds = %2
  store i32 -1, ptr %3, align 4
  store i32 1, ptr %8, align 4
  br label %25

19:                                               ; preds = %2
  %20 = load i32, ptr %6, align 4, !tbaa !4
  %21 = load i32, ptr %7, align 4, !tbaa !4
  %22 = icmp ugt i32 %20, %21
  br i1 %22, label %23, label %24

23:                                               ; preds = %19
  store i32 1, ptr %3, align 4
  store i32 1, ptr %8, align 4
  br label %25

24:                                               ; preds = %19
  store i32 0, ptr %3, align 4
  store i32 1, ptr %8, align 4
  br label %25

25:                                               ; preds = %24, %23, %18
  call void @llvm.lifetime.end.p0(i64 4, ptr %7) #10
  call void @llvm.lifetime.end.p0(i64 4, ptr %6) #10
  %26 = load i32, ptr %3, align 4
  ret i32 %26
}