; Function Attrs: nounwind uwtable
define internal range(i32 -1, 2) i32 @geometry_cmp(ptr noundef readonly captures(none) %0, ptr noundef readonly captures(none) %1) #0 {
  %3 = load ptr, ptr %0, align 8, !tbaa !54
  %4 = tail call i32 @open_pack_index(ptr noundef %3) #16
  %.not.i = icmp eq i32 %4, 0
  br i1 %.not.i, label %geometry_pack_weight.exit, label %5

5:                                                ; preds = %2
  %6 = tail call fastcc ptr @_(ptr noundef nonnull @.str.120)
  %7 = getelementptr inbounds nuw i8, ptr %3, i64 248
  tail call void (ptr, ...) @die(ptr noundef %6, ptr noundef nonnull %7) #17
  unreachable

geometry_pack_weight.exit:                        ; preds = %2
  %8 = getelementptr inbounds nuw i8, ptr %3, i64 72
  %9 = load i32, ptr %8, align 8, !tbaa !4
  %10 = load ptr, ptr %1, align 8, !tbaa !54
  %11 = tail call i32 @open_pack_index(ptr noundef %10) #16
  %.not.i8 = icmp eq i32 %11, 0
  br i1 %.not.i8, label %geometry_pack_weight.exit9, label %12

12:                                               ; preds = %geometry_pack_weight.exit
  %13 = tail call fastcc ptr @_(ptr noundef nonnull @.str.120)
  %14 = getelementptr inbounds nuw i8, ptr %10, i64 248
  tail call void (ptr, ...) @die(ptr noundef %13, ptr noundef nonnull %14) #17
  unreachable

geometry_pack_weight.exit9:                       ; preds = %geometry_pack_weight.exit
  %15 = getelementptr inbounds nuw i8, ptr %10, i64 72
  %16 = load i32, ptr %15, align 8, !tbaa !4
  %.0 = tail call i32 @llvm.ucmp.i32.i32(i32 %9, i32 %16)
  ret i32 %.0
}